; Function Attrs: nounwind uwtable
define ptr @l_Lean_Elab_elabDeclAttrs___at_Lean_Elab_Command_elabMutualInductive___spec__2___boxed(ptr noundef %0, ptr noundef %1, ptr noundef %2, ptr noundef %3) local_unnamed_addr #1 {
  %5 = tail call ptr @l_Lean_Syntax_getArg(ptr noundef %0, ptr noundef nonnull inttoptr (i64 3 to ptr)) #5
  %6 = tail call ptr @l_Lean_Syntax_getSepArgs(ptr noundef %5) #5
  %7 = ptrtoint ptr %5 to i64
  %8 = and i64 %7, 1
  %.not.i10 = icmp eq i64 %8, 0
  br i1 %.not.i10, label %9, label %lean_dec.exit10.i

9:                                                ; preds = %4
  %10 = load i32, ptr %5, align 4, !tbaa !8
  %11 = icmp sgt i32 %10, 1
  br i1 %11, label %12, label %14, !prof !11

12:                                               ; preds = %9
  %13 = add nsw i32 %10, -1
  store i32 %13, ptr %5, align 4, !tbaa !8
  br label %lean_dec.exit10.i

14:                                               ; preds = %9
  %.not.i.i = icmp eq i32 %10, 0
  br i1 %.not.i.i, label %lean_dec.exit10.i, label %15

15:                                               ; preds = %14
  tail call void @lean_dec_ref_cold(ptr noundef nonnull %5) #5
  br label %lean_dec.exit10.i

lean_dec.exit10.i:                                ; preds = %15, %14, %12, %4
  %16 = tail call ptr @l_Lean_Elab_elabAttrs___at_Lean_Elab_Command_elabMutualInductive___spec__3(ptr noundef %6, ptr noundef %1, ptr noundef %2, ptr noundef %3)
  %17 = ptrtoint ptr %6 to i64
  %18 = and i64 %17, 1
  %.not13.i = icmp eq i64 %18, 0
  br i1 %.not13.i, label %19, label %l_Lean_Elab_elabDeclAttrs___at_Lean_Elab_Command_elabMutualInductive___spec__2.exit

19:                                               ; preds = %lean_dec.exit10.i
  %20 = load i32, ptr %6, align 4, !tbaa !8
  %21 = icmp sgt i32 %20, 1
  br i1 %21, label %22, label %24, !prof !11

22:                                               ; preds = %19
  %23 = add nsw i32 %20, -1
  store i32 %23, ptr %6, align 4, !tbaa !8
  br label %l_Lean_Elab_elabDeclAttrs___at_Lean_Elab_Command_elabMutualInductive___spec__2.exit

24:                                               ; preds = %19
  %.not.i11.i = icmp eq i32 %20, 0
  br i1 %.not.i11.i, label %l_Lean_Elab_elabDeclAttrs___at_Lean_Elab_Command_elabMutualInductive___spec__2.exit, label %25

25:                                               ; preds = %24
  tail call void @lean_dec_ref_cold(ptr noundef nonnull %6) #5
  br label %l_Lean_Elab_elabDeclAttrs___at_Lean_Elab_Command_elabMutualInductive___spec__2.exit

l_Lean_Elab_elabDeclAttrs___at_Lean_Elab_Command_elabMutualInductive___spec__2.exit: ; preds = %lean_dec.exit10.i, %22, %24, %25
  %26 = ptrtoint ptr %2 to i64
  %27 = and i64 %26, 1
  %.not = icmp eq i64 %27, 0
  br i1 %.not, label %28, label %lean_dec.exit7

28:                                               ; preds = %l_Lean_Elab_elabDeclAttrs___at_Lean_Elab_Command_elabMutualInductive___spec__2.exit
  %29 = load i32, ptr %2, align 4, !tbaa !8
  %30 = icmp sgt i32 %29, 1
  br i1 %30, label %31, label %33, !prof !11

31:                                               ; preds = %28
  %32 = add nsw i32 %29, -1
  store i32 %32, ptr %2, align 4, !tbaa !8
  br label %lean_dec.exit7

33:                                               ; preds = %28
  %.not.i = icmp eq i32 %29, 0
  br i1 %.not.i, label %lean_dec.exit7, label %34

34:                                               ; preds = %33
  tail call void @lean_dec_ref_cold(ptr noundef nonnull %2) #5
  br label %lean_dec.exit7

lean_dec.exit7:                                   ; preds = %34, %33, %31, %l_Lean_Elab_elabDeclAttrs___at_Lean_Elab_Command_elabMutualInductive___spec__2.exit
  %35 = ptrtoint ptr %0 to i64
  %36 = and i64 %35, 1
  %.not11 = icmp eq i64 %36, 0
  br i1 %.not11, label %37, label %lean_dec.exit

37:                                               ; preds = %lean_dec.exit7
  %38 = load i32, ptr %0, align 4, !tbaa !8
  %39 = icmp sgt i32 %38, 1
  br i1 %39, label %40, label %42, !prof !11

40:                                               ; preds = %37
  %41 = add nsw i32 %38, -1
  store i32 %41, ptr %0, align 4, !tbaa !8
  br label %lean_dec.exit

42:                                               ; preds = %37
  %.not.i8 = icmp eq i32 %38, 0
  br i1 %.not.i8, label %lean_dec.exit, label %43

43:                                               ; preds = %42
  tail call void @lean_dec_ref_cold(ptr noundef nonnull %0) #5
  br label %lean_dec.exit

lean_dec.exit:                                    ; preds = %43, %42, %40, %lean_dec.exit7
  ret ptr %16
}